; Function Attrs: nounwind uwtable
define range(i32 0, 575) i32 @cli_mbr_check2(ptr noundef readonly %0, i64 noundef %1) local_unnamed_addr #0 {
  %3 = alloca %struct.mbr_boot_record, align 1
  call void @llvm.lifetime.start.p0(i64 66, ptr nonnull %3) #6
  %.not = icmp eq ptr %0, null
  br i1 %.not, label %7, label %4

4:                                                ; preds = %2
  %5 = getelementptr inbounds nuw i8, ptr %0, i64 96
  %6 = load ptr, ptr %5, align 8, !tbaa !14
  %.not22 = icmp eq ptr %6, null
  br i1 %.not22, label %7, label %8

7:                                                ; preds = %4, %2
  tail call void (ptr, ...) @cli_errmsg(ptr noundef nonnull @.str) #6
  br label %mbr_check_mbr.exit

8:                                                ; preds = %4
  %9 = icmp eq i64 %1, 0
  %spec.store.select = select i1 %9, i64 512, i64 %1
  %10 = getelementptr inbounds nuw i8, ptr %6, i64 88
  %11 = load i64, ptr %10, align 8, !tbaa !31
  %12 = urem i64 %11, %spec.store.select
  %13 = udiv i64 %11, %spec.store.select
  %.not23 = icmp eq i64 %12, 0
  br i1 %.not23, label %15, label %14

14:                                               ; preds = %8
  tail call void (ptr, ...) @cli_dbgmsg(ptr noundef nonnull @.str.1, i64 noundef %11, i64 noundef %spec.store.select) #6
  br label %mbr_check_mbr.exit

15:                                               ; preds = %8
  %16 = add i64 %spec.store.select, -66
  %or.cond28.not = icmp ult i64 %16, %11
  br i1 %or.cond28.not, label %17, label %fmap_readn.exit.thread

17:                                               ; preds = %15
  %18 = sub nuw i64 %11, %16
  %spec.select.i = tail call i64 @llvm.umin.i64(i64 %18, i64 66)
  %19 = getelementptr inbounds nuw i8, ptr %6, i64 104
  %20 = load ptr, ptr %19, align 8, !tbaa !33
  %21 = tail call ptr %20(ptr noundef nonnull %6, i64 noundef %16, i64 noundef range(i64 0, 67) %spec.select.i, i32 noundef 0) #6
  %.not26.i = icmp eq ptr %21, null
  br i1 %.not26.i, label %fmap_readn.exit.thread, label %fmap_readn.exit

fmap_readn.exit:                                  ; preds = %17
  call void @llvm.memcpy.p0.p0.i64(ptr nonnull align 1 %3, ptr nonnull align 1 %21, i64 %spec.select.i, i1 false)
  %.not24 = icmp ugt i64 %18, 65
  br i1 %.not24, label %22, label %fmap_readn.exit.thread

fmap_readn.exit.thread:                           ; preds = %17, %15, %fmap_readn.exit
  tail call void (ptr, ...) @cli_dbgmsg(ptr noundef nonnull @.str.2) #6
  br label %mbr_check_mbr.exit

22:                                               ; preds = %fmap_readn.exit
  %23 = getelementptr inbounds nuw i8, ptr %3, i64 64
  %24 = load i16, ptr %23, align 1, !tbaa !3
  %25 = getelementptr inbounds nuw i8, ptr %3, i64 4
  %26 = load i8, ptr %25, align 1, !tbaa !8
  %27 = add i8 %26, 19
  %or.cond = icmp ult i8 %27, 2
  br i1 %or.cond, label %mbr_check_mbr.exit, label %.preheader

28:                                               ; preds = %31
  %indvars.iv.next.i = add nuw nsw i64 %indvars.iv.i, 1
  %exitcond.not.i = icmp eq i64 %indvars.iv.next.i, 4
  br i1 %exitcond.not.i, label %41, label %.preheader

.preheader:                                       ; preds = %22, %28
  %indvars.iv.i = phi i64 [ %indvars.iv.next.i, %28 ], [ 0, %22 ]
  %29 = getelementptr inbounds nuw [4 x %struct.mbr_partition_entry], ptr %3, i64 0, i64 %indvars.iv.i
  %30 = load i8, ptr %29, align 1, !tbaa !11
  switch i8 %30, label %.sink.split.i [
    i8 0, label %31
    i8 -128, label %31
  ]

31:                                               ; preds = %.preheader, %.preheader
  %32 = getelementptr inbounds nuw i8, ptr %29, i64 8
  %33 = load i32, ptr %32, align 1, !tbaa !12
  %34 = zext i32 %33 to i64
  %35 = getelementptr inbounds nuw i8, ptr %29, i64 12
  %36 = load i32, ptr %35, align 1, !tbaa !13
  %37 = zext i32 %36 to i64
  %38 = add nuw nsw i64 %37, %34
  %39 = mul i64 %38, %spec.store.select
  %40 = icmp ugt i64 %39, %11
  br i1 %40, label %.sink.split.i, label %28

41:                                               ; preds = %28
  %.not.i25 = icmp eq i16 %24, -21931
  br i1 %.not.i25, label %42, label %.sink.split.i

42:                                               ; preds = %41
  %43 = icmp ult i64 %13, 2
  br i1 %43, label %.sink.split.i, label %mbr_check_mbr.exit

.sink.split.i:                                    ; preds = %31, %.preheader, %42, %41
  %.str.27.sink.i = phi ptr [ @.str.25, %41 ], [ @.str.27, %42 ], [ @.str.26, %31 ], [ @.str.24, %.preheader ]
  tail call void (ptr, ...) @cli_dbgmsg(ptr noundef nonnull %.str.27.sink.i) #6
  br label %mbr_check_mbr.exit

mbr_check_mbr.exit:                               ; preds = %.sink.split.i, %42, %22, %fmap_readn.exit.thread, %14, %7
  %.0 = phi i32 [ 26, %14 ], [ 26, %fmap_readn.exit.thread ], [ 2, %7 ], [ 574, %22 ], [ 0, %42 ], [ 26, %.sink.split.i ]
  call void @llvm.lifetime.end.p0(i64 66, ptr nonnull %3) #6
  ret i32 %.0
}